; Function Attrs: nounwind sspstrong uwtable
define dso_local range(i32 -14, 1) i32 @copy_to_user(i64 noundef %gaddr, ptr noundef readonly captures(none) %hptr, i64 noundef %len) local_unnamed_addr #0 {
entry:
  %cmp.i.i = icmp eq i64 %len, 0
  br i1 %cmp.i.i, label %cond.true.i.i, label %cond.false.i.i

cond.true.i.i:                                    ; preds = %entry
  %0 = load i64, ptr @reserved_va, align 8
  %tobool.not.i.i.i = icmp eq i64 %0, 0
  %cmp1.i.i.i = icmp uge i64 %0, %gaddr
  %cmp.i.i.i = or i1 %tobool.not.i.i.i, %cmp1.i.i.i
  br i1 %cmp.i.i.i, label %access_ok_untagged.exit.i, label %if.end

cond.false.i.i:                                   ; preds = %entry
  %sub.i.i.i = add i64 %len, -1
  %1 = load i64, ptr @reserved_va, align 8
  %tobool.not.i5.i.i = icmp eq i64 %1, 0
  %..i.i.i = select i1 %tobool.not.i5.i.i, i64 -1, i64 %1
  %cmp.not.i.i.i = icmp ule i64 %sub.i.i.i, %..i.i.i
  %reass.sub = sub i64 %..i.i.i, %len
  %add.i.i.i = add i64 %reass.sub, 1
  %cmp7.i.i.i = icmp ule i64 %gaddr, %add.i.i.i
  %2 = and i1 %cmp.not.i.i.i, %cmp7.i.i.i
  br i1 %2, label %access_ok_untagged.exit.i, label %if.end

access_ok_untagged.exit.i:                        ; preds = %cond.false.i.i, %cond.true.i.i
  %call2.i.i = tail call zeroext i1 @page_check_range(i64 noundef %gaddr, i64 noundef %len, i32 noundef 3) #3
  br i1 %call2.i.i, label %lock_user.exit, label %if.end

lock_user.exit:                                   ; preds = %access_ok_untagged.exit.i
  %3 = load i64, ptr @guest_base, align 8
  %add.i.i = add i64 %3, %gaddr
  %tobool.not = icmp eq i64 %add.i.i, 0
  br i1 %tobool.not, label %if.end, label %if.then

if.then:                                          ; preds = %lock_user.exit
  %4 = inttoptr i64 %add.i.i to ptr
  tail call void @llvm.memcpy.p0.p0.i64(ptr nonnull align 1 %4, ptr align 1 %hptr, i64 %len, i1 false)
  br label %if.end

if.end:                                           ; preds = %cond.true.i.i, %cond.false.i.i, %access_ok_untagged.exit.i, %lock_user.exit, %if.then
  %ret.0 = phi i32 [ 0, %if.then ], [ -14, %lock_user.exit ], [ -14, %access_ok_untagged.exit.i ], [ -14, %cond.false.i.i ], [ -14, %cond.true.i.i ]
  ret i32 %ret.0
}